Certificate:
    Data:
        Version: 3 (0x2)
        Serial Number:
            ea:65:63:1c:b4:e5:81:0d:92:54:99:e2:9c:92:c7:39
        Signature Algorithm: sha256WithRSAEncryption
        Issuer: CN=Easy-RSA CA
        Validity
            Not Before: Dec 30 11:25:21 2023 GMT
            Not After : Apr  3 11:25:21 2026 GMT
        Subject: CN=server
        Subject Public Key Info:
            Public Key Algorithm: rsaEncryption
                Public-Key: (2048 bit)
                Modulus:
                    00:97:7e:1e:89:c8:90:3f:ee:4a:71:34:ae:b1:a7:
                    72:aa:60:d6:4d:68:30:f2:aa:71:e6:1e:2e:3d:cf:
                    71:e6:58:64:f5:e0:8f:5f:c6:1f:e8:90:84:b1:fc:
                    c7:03:ea:a2:ce:aa:cc:ef:8a:d8:51:8f:9a:03:bb:
                    43:16:98:ef:6f:d8:5f:11:dd:b9:c6:a7:f3:95:6b:
                    e8:c2:0a:28:a6:7a:2b:4f:ac:d8:27:e5:6e:03:ee:
                    54:f3:9e:5e:38:0a:89:aa:12:e2:6d:ee:3d:f7:8a:
                    a3:51:10:ba:4e:c0:f7:2f:4d:00:71:0e:99:aa:b2:
                    ae:78:6c:72:c6:35:46:98:31:74:85:61:27:12:6f:
                    b8:7d:b1:7b:da:5f:63:56:80:15:df:96:7f:2a:bf:
                    7e:09:14:48:9d:c0:5f:36:4a:5c:12:cc:53:bc:fa:
                    b5:ec:94:89:88:ad:54:aa:f6:4b:db:e1:49:21:3d:
                    73:f6:7a:b6:5c:8a:7e:e5:77:b7:25:a9:a6:30:b0:
                    2a:2d:42:9d:96:56:43:af:63:72:e8:2a:7a:a0:40:
                    2a:0e:1f:40:4e:3e:92:aa:27:6e:a1:c6:45:f8:b1:
                    99:8c:11:2a:96:b5:19:ad:fa:38:71:78:b9:52:61:
                    13:11:e6:4d:6d:de:42:ea:4f:6a:dd:cb:52:97:6e:
                    13:8d
                Exponent: 65537 (0x10001)
        X509v3 extensions:
            X509v3 Basic Constraints: 
                CA:FALSE
            X509v3 Subject Key Identifier: 
                9E:CB:D3:CB:3F:37:F6:CA:53:D5:2F:10:F5:0D:AA:FB:56:96:98:9A
            X509v3 Authority Key Identifier: 
                keyid:2D:EF:9F:DF:92:6E:2A:D9:EF:F4:23:33:BC:52:22:65:9D:A4:4A:3C
                DirName:/CN=Easy-RSA CA
                serial:04:B2:40:E0:E6:AD:E6:AC:F2:0E:9D:CB:3C:03:90:4B:1A:45:EF:38
            X509v3 Extended Key Usage: 
                TLS Web Server Authentication
            X509v3 Key Usage: 
                Digital Signature, Key Encipherment
            X509v3 Subject Alternative Name: 
                DNS:server
    Signature Algorithm: sha256WithRSAEncryption
    Signature Value:
        1a:77:cd:94:99:d0:d6:a4:79:3e:fa:32:96:9f:8d:51:d9:8e:
        8c:f4:01:f7:be:2f:e8:e1:b2:85:e2:f9:aa:9e:d7:01:35:6c:
        4d:a3:66:e1:ec:5c:08:b3:4d:53:c7:f7:5b:e7:dd:62:8f:f8:
        ac:44:42:42:59:bf:26:a8:30:d6:5a:5a:cb:13:c0:10:58:ca:
        7e:38:2d:24:51:89:c0:92:5e:21:91:cf:17:cf:62:7a:67:7a:
        64:1e:70:16:0c:54:cf:2d:51:f4:62:8b:1a:ee:1e:a1:22:1e:
        11:a7:0f:1b:6c:9d:0c:8f:d2:38:8a:4d:db:c6:bc:0b:4a:c1:
        a2:19:f9:82:91:70:37:1e:b8:a3:33:34:89:8f:f5:91:68:f4:
        24:43:0d:7a:df:79:8f:8c:ee:6b:c5:7d:b0:91:4d:66:2c:c3:
        33:a1:75:97:0d:de:e6:fd:7e:7c:bb:5a:f0:77:64:66:ff:41:
        77:5c:c4:8b:1d:4f:0a:ad:ea:96:9e:61:d6:92:52:06:33:06:
        44:ce:23:84:d8:ce:20:0d:89:59:63:4f:37:79:a0:2d:f0:c7:
        dd:34:0b:bc:e5:f5:2e:89:7b:83:7e:49:66:21:40:49:90:e4:
        9e:51:b9:c1:e3:fc:cd:3a:3d:c7:00:43:22:7e:dc:6c:46:05:
        99:27:e0:55
-----BEGIN CERTIFICATE-----
MIIDaDCCAlCgAwIBAgIRAOplYxy05YENklSZ4pySxzkwDQYJKoZIhvcNAQELBQAw
FjEUMBIGA1UEAwwLRWFzeS1SU0EgQ0EwHhcNMjMxMjMwMTEyNTIxWhcNMjYwNDAz
MTEyNTIxWjARMQ8wDQYDVQQDDAZzZXJ2ZXIwggEiMA0GCSqGSIb3DQEBAQUAA4IB
DwAwggEKAoIBAQCXfh6JyJA/7kpxNK6xp3KqYNZNaDDyqnHmHi49z3HmWGT14I9f
xh/okISx/McD6qLOqszvithRj5oDu0MWmO9v2F8R3bnGp/OVa+jCCiimeitPrNgn
5W4D7lTznl44ComqEuJt7j33iqNRELpOwPcvTQBxDpmqsq54bHLGNUaYMXSFYScS
b7h9sXvaX2NWgBXfln8qv34JFEidwF82SlwSzFO8+rXslImIrVSq9kvb4UkhPXP2
erZcin7ld7clqaYwsCotQp2WVkOvY3LoKnqgQCoOH0BOPpKqJ26hxkX4sZmMESqW
tRmt+jhxeLlSYRMR5k1t3kLqT2rdy1KXbhONAgMBAAGjgbUwgbIwCQYDVR0TBAIw
ADAdBgNVHQ4EFgQUnsvTyz839spT1S8Q9Q2q+1aWmJowUQYDVR0jBEowSIAULe+f
35JuKtnv9CMzvFIiZZ2kSjyhGqQYMBYxFDASBgNVBAMMC0Vhc3ktUlNBIENBghQE
skDg5q3mrPIOncs8A5BLGkXvODATBgNVHSUEDDAKBggrBgEFBQcDATALBgNVHQ8E
BAMCBaAwEQYDVR0RBAowCIIGc2VydmVyMA0GCSqGSIb3DQEBCwUAA4IBAQAad82U
mdDWpHk++jKWn41R2Y6M9AH3vi/o4bKF4vmqntcBNWxNo2bh7FwIs01Tx/db591i
j/isREJCWb8mqDDWWlrLE8AQWMp+OC0kUYnAkl4hkc8Xz2J6Z3pkHnAWDFTPLVH0
Yosa7h6hIh4Rpw8bbJ0Mj9I4ik3bxrwLSsGiGfmCkXA3HrijMzSJj/WRaPQkQw16
33mPjO5rxX2wkU1mLMMzoXWXDd7m/X58u1rwd2Rm/0F3XMSLHU8KreqWnmHWklIG
MwZEziOE2M4gDYlZY083eaAt8MfdNAu85fUuiXuDfklmIUBJkOSeUbnB4/zNOj3H
AEMiftxsRgWZJ+BV
-----END CERTIFICATE-----
